; Function Attrs: nounwind uwtable
define noalias nonnull ptr @l___private_Lean_Meta_Tactic_Grind_ProveEq_0__Lean_Meta_Grind_inBinder(ptr noundef %0, ptr noundef %1, ptr readnone captures(none) %2, ptr readnone captures(none) %3, ptr readnone captures(none) %4, ptr readnone captures(none) %5, ptr readnone captures(none) %6, ptr readnone captures(none) %7, ptr readnone captures(none) %8, ptr readnone captures(none) %9, ptr noundef %10) local_unnamed_addr #1 {
  %12 = ptrtoint ptr %0 to i64
  %13 = and i64 %12, 1
  %.not = icmp eq i64 %13, 0
  br i1 %.not, label %.critedge.i, label %14, !prof !13

14:                                               ; preds = %11
  %15 = icmp ugt ptr %0, inttoptr (i64 1 to ptr)
  br label %lean_nat_lt.exit

.critedge.i:                                      ; preds = %11
  %16 = tail call zeroext i1 @lean_nat_big_lt(ptr noundef nonnull inttoptr (i64 1 to ptr), ptr noundef %0) #4
  br label %lean_nat_lt.exit

lean_nat_lt.exit:                                 ; preds = %14, %.critedge.i
  %.0.i = phi i1 [ %15, %14 ], [ %16, %.critedge.i ]
  tail call void @lean_inc_heartbeat() #4
  %17 = tail call noalias ptr @mi_malloc_small(i64 noundef 24) #4
  %18 = icmp eq ptr %17, null
  br i1 %18, label %19, label %lean_alloc_ctor.exit

19:                                               ; preds = %lean_nat_lt.exit
  tail call void @lean_internal_panic_out_of_memory() #5
  unreachable

lean_alloc_ctor.exit:                             ; preds = %lean_nat_lt.exit
  %20 = select i1 %.0.i, ptr inttoptr (i64 3 to ptr), ptr inttoptr (i64 1 to ptr)
  %21 = getelementptr inbounds nuw i8, ptr %17, i64 4
  store i32 1, ptr %17, align 4, !tbaa !8
  store i32 131096, ptr %21, align 4
  %22 = getelementptr inbounds nuw i8, ptr %17, i64 8
  store ptr %20, ptr %22, align 8, !tbaa !4
  %23 = getelementptr inbounds nuw i8, ptr %17, i64 16
  store ptr %1, ptr %23, align 8, !tbaa !4
  tail call void @lean_inc_heartbeat() #4
  %24 = tail call noalias ptr @mi_malloc_small(i64 noundef 16) #4
  %25 = icmp eq ptr %24, null
  br i1 %25, label %26, label %lean_alloc_ctor.exit13

26:                                               ; preds = %lean_alloc_ctor.exit
  tail call void @lean_internal_panic_out_of_memory() #5
  unreachable

lean_alloc_ctor.exit13:                           ; preds = %lean_alloc_ctor.exit
  %27 = getelementptr inbounds nuw i8, ptr %24, i64 4
  store i32 1, ptr %24, align 4, !tbaa !8
  store i32 16842768, ptr %27, align 4
  %28 = getelementptr inbounds nuw i8, ptr %24, i64 8
  store ptr %17, ptr %28, align 8, !tbaa !4
  tail call void @lean_inc_heartbeat() #4
  %29 = tail call noalias ptr @mi_malloc_small(i64 noundef 24) #4
  %30 = icmp eq ptr %29, null
  br i1 %30, label %31, label %lean_alloc_ctor.exit14

31:                                               ; preds = %lean_alloc_ctor.exit13
  tail call void @lean_internal_panic_out_of_memory() #5
  unreachable

lean_alloc_ctor.exit14:                           ; preds = %lean_alloc_ctor.exit13
  %32 = getelementptr inbounds nuw i8, ptr %29, i64 4
  store i32 1, ptr %29, align 4, !tbaa !8
  store i32 131096, ptr %32, align 4
  %33 = getelementptr inbounds nuw i8, ptr %29, i64 8
  store ptr %24, ptr %33, align 8, !tbaa !4
  %34 = getelementptr inbounds nuw i8, ptr %29, i64 16
  store ptr %10, ptr %34, align 8, !tbaa !4
  ret ptr %29
}